; Function Attrs: mustprogress uwtable
define hidden void @_ZN3sls7context11updt_paramsERK10params_ref(ptr noundef nonnull align 8 dereferenceable(321) %0, ptr noundef nonnull align 8 dereferenceable(8) %1) local_unnamed_addr #4 align 2 personality ptr @__gxx_personality_v0 {
  %3 = alloca %struct.smt_params_helper, align 8
  call void @llvm.lifetime.start.p0(i64 16, ptr nonnull %3) #27
  store ptr %1, ptr %3, align 8, !tbaa !73
  %4 = getelementptr inbounds nuw i8, ptr %3, i64 8
  call void @_ZN7gparams10get_moduleEPKc(ptr dead_on_unwind nonnull writable sret(%class.params_ref) align 8 %4, ptr noundef nonnull @.str.23)
  %5 = load ptr, ptr %3, align 8, !tbaa !75
  %6 = invoke noundef i32 @_ZNK10params_ref8get_uintEPKcRKS_j(ptr noundef nonnull align 8 dereferenceable(8) %5, ptr noundef nonnull @.str.24, ptr noundef nonnull align 8 dereferenceable(8) %4, i32 noundef 0)
          to label %_ZNK17smt_params_helper11random_seedEv.exit unwind label %9

_ZNK17smt_params_helper11random_seedEv.exit:      ; preds = %2
  %7 = getelementptr inbounds nuw i8, ptr %0, i64 152
  store i32 %6, ptr %7, align 8, !tbaa !77
  %8 = getelementptr inbounds nuw i8, ptr %0, i64 96
  invoke void @_ZN10params_ref4copyERKS_(ptr noundef nonnull align 8 dereferenceable(8) %8, ptr noundef nonnull align 8 dereferenceable(8) %1)
          to label %_ZN10params_ref6appendERKS_.exit unwind label %9

_ZN10params_ref6appendERKS_.exit:                 ; preds = %_ZNK17smt_params_helper11random_seedEv.exit
  call void @_ZN10params_refD1Ev(ptr noundef nonnull align 8 dereferenceable(8) %4) #27
  call void @llvm.lifetime.end.p0(i64 16, ptr nonnull %3) #27
  ret void

9:                                                ; preds = %_ZNK17smt_params_helper11random_seedEv.exit, %2
  %10 = landingpad { ptr, i32 }
          cleanup
  call void @_ZN10params_refD1Ev(ptr noundef nonnull align 8 dereferenceable(8) %4) #27
  call void @llvm.lifetime.end.p0(i64 16, ptr nonnull %3) #27
  resume { ptr, i32 } %10
}